target datalayout = "e-m:e-p270:32:32-p271:32:32-p272:64:64-i64:64-i128:128-f80:128-n8:16:32:64-S128"
target triple = "x86_64-pc-linux-gnu"

%struct.tm = type { i32, i32, i32, i32, i32, i32, i32, i32, i32, i64, ptr }

@.str.37 = private unnamed_addr constant [15 x i8] c"%04d-%02d-%02d\00", align 1
@.str.38 = private unnamed_addr constant [18 x i8] c"%04d-%02d-%02d %s\00", align 1
@.str.39 = private unnamed_addr constant [3 x i8] c"BC\00", align 1
@.str.40 = private unnamed_addr constant [10 x i8] c"%02d/%02d\00", align 1
@.str.41 = private unnamed_addr constant [6 x i8] c"/%04d\00", align 1
@.str.42 = private unnamed_addr constant [9 x i8] c"/%04d %s\00", align 1
@.str.43 = private unnamed_addr constant [10 x i8] c"%02d.%02d\00", align 1
@.str.44 = private unnamed_addr constant [6 x i8] c".%04d\00", align 1
@.str.45 = private unnamed_addr constant [9 x i8] c".%04d %s\00", align 1
@.str.46 = private unnamed_addr constant [10 x i8] c"%02d-%02d\00", align 1
@.str.47 = private unnamed_addr constant [6 x i8] c"-%04d\00", align 1
@.str.48 = private unnamed_addr constant [9 x i8] c"-%04d %s\00", align 1

; Function Attrs: nounwind uwtable
define void @EncodeDateOnly(ptr noundef %0, i32 noundef %1, ptr noundef %2, i1 noundef zeroext %3) #0 {
  %5 = alloca ptr, align 8
  %6 = alloca i32, align 4
  %7 = alloca ptr, align 8
  %8 = alloca i8, align 1
  store ptr %0, ptr %5, align 8
  store i32 %1, ptr %6, align 4
  store ptr %2, ptr %7, align 8
  %9 = zext i1 %3 to i8
  store i8 %9, ptr %8, align 1
  %10 = load i32, ptr %6, align 4
  switch i32 %10, label %117 [
    i32 1, label %11
    i32 2, label %43
    i32 3, label %86
    i32 0, label %116
  ]

11:                                               ; preds = %4
  %12 = load ptr, ptr %5, align 8
  %13 = getelementptr inbounds nuw %struct.tm, ptr %12, i32 0, i32 5
  %14 = load i32, ptr %13, align 4
  %15 = icmp sgt i32 %14, 0
  br i1 %15, label %16, label %28

16:                                               ; preds = %11
  %17 = load ptr, ptr %7, align 8
  %18 = load ptr, ptr %5, align 8
  %19 = getelementptr inbounds nuw %struct.tm, ptr %18, i32 0, i32 5
  %20 = load i32, ptr %19, align 4
  %21 = load ptr, ptr %5, align 8
  %22 = getelementptr inbounds nuw %struct.tm, ptr %21, i32 0, i32 4
  %23 = load i32, ptr %22, align 8
  %24 = load ptr, ptr %5, align 8
  %25 = getelementptr inbounds nuw %struct.tm, ptr %24, i32 0, i32 3
  %26 = load i32, ptr %25, align 4
  %27 = call i32 (ptr, ptr, ...) @pg_sprintf(ptr noundef %17, ptr noundef @.str.37, i32 noundef %20, i32 noundef %23, i32 noundef %26)
  br label %42

28:                                               ; preds = %11
  %29 = load ptr, ptr %7, align 8
  %30 = load ptr, ptr %5, align 8
  %31 = getelementptr inbounds nuw %struct.tm, ptr %30, i32 0, i32 5
  %32 = load i32, ptr %31, align 4
  %33 = sub i32 %32, 1
  %34 = sub i32 0, %33
  %35 = load ptr, ptr %5, align 8
  %36 = getelementptr inbounds nuw %struct.tm, ptr %35, i32 0, i32 4
  %37 = load i32, ptr %36, align 8
  %38 = load ptr, ptr %5, align 8
  %39 = getelementptr inbounds nuw %struct.tm, ptr %38, i32 0, i32 3
  %40 = load i32, ptr %39, align 4
  %41 = call i32 (ptr, ptr, ...) @pg_sprintf(ptr noundef %29, ptr noundef @.str.38, i32 noundef %34, i32 noundef %37, i32 noundef %40, ptr noundef @.str.39)
  br label %42

42:                                               ; preds = %28, %16
  br label %160

43:                                               ; preds = %4
  %44 = load i8, ptr %8, align 1, !range !5, !noundef !6
  %45 = trunc i8 %44 to i1
  br i1 %45, label %46, label %55

46:                                               ; preds = %43
  %47 = load ptr, ptr %7, align 8
  %48 = load ptr, ptr %5, align 8
  %49 = getelementptr inbounds nuw %struct.tm, ptr %48, i32 0, i32 3
  %50 = load i32, ptr %49, align 4
  %51 = load ptr, ptr %5, align 8
  %52 = getelementptr inbounds nuw %struct.tm, ptr %51, i32 0, i32 4
  %53 = load i32, ptr %52, align 8
  %54 = call i32 (ptr, ptr, ...) @pg_sprintf(ptr noundef %47, ptr noundef @.str.40, i32 noundef %50, i32 noundef %53)
  br label %64

55:                                               ; preds = %43
  %56 = load ptr, ptr %7, align 8
  %57 = load ptr, ptr %5, align 8
  %58 = getelementptr inbounds nuw %struct.tm, ptr %57, i32 0, i32 4
  %59 = load i32, ptr %58, align 8
  %60 = load ptr, ptr %5, align 8
  %61 = getelementptr inbounds nuw %struct.tm, ptr %60, i32 0, i32 3
  %62 = load i32, ptr %61, align 4
  %63 = call i32 (ptr, ptr, ...) @pg_sprintf(ptr noundef %56, ptr noundef @.str.40, i32 noundef %59, i32 noundef %62)
  br label %64

64:                                               ; preds = %55, %46
  %65 = load ptr, ptr %5, align 8
  %66 = getelementptr inbounds nuw %struct.tm, ptr %65, i32 0, i32 5
  %67 = load i32, ptr %66, align 4
  %68 = icmp sgt i32 %67, 0
  br i1 %68, label %69, label %76

69:                                               ; preds = %64
  %70 = load ptr, ptr %7, align 8
  %71 = getelementptr inbounds i8, ptr %70, i64 5
  %72 = load ptr, ptr %5, align 8
  %73 = getelementptr inbounds nuw %struct.tm, ptr %72, i32 0, i32 5
  %74 = load i32, ptr %73, align 4
  %75 = call i32 (ptr, ptr, ...) @pg_sprintf(ptr noundef %71, ptr noundef @.str.41, i32 noundef %74)
  br label %85

76:                                               ; preds = %64
  %77 = load ptr, ptr %7, align 8
  %78 = getelementptr inbounds i8, ptr %77, i64 5
  %79 = load ptr, ptr %5, align 8
  %80 = getelementptr inbounds nuw %struct.tm, ptr %79, i32 0, i32 5
  %81 = load i32, ptr %80, align 4
  %82 = sub i32 %81, 1
  %83 = sub i32 0, %82
  %84 = call i32 (ptr, ptr, ...) @pg_sprintf(ptr noundef %78, ptr noundef @.str.42, i32 noundef %83, ptr noundef @.str.39)
  br label %85

85:                                               ; preds = %76, %69
  br label %160

86:                                               ; preds = %4
  %87 = load ptr, ptr %7, align 8
  %88 = load ptr, ptr %5, align 8
  %89 = getelementptr inbounds nuw %struct.tm, ptr %88, i32 0, i32 3
  %90 = load i32, ptr %89, align 4
  %91 = load ptr, ptr %5, align 8
  %92 = getelementptr inbounds nuw %struct.tm, ptr %91, i32 0, i32 4
  %93 = load i32, ptr %92, align 8
  %94 = call i32 (ptr, ptr, ...) @pg_sprintf(ptr noundef %87, ptr noundef @.str.43, i32 noundef %90, i32 noundef %93)
  %95 = load ptr, ptr %5, align 8
  %96 = getelementptr inbounds nuw %struct.tm, ptr %95, i32 0, i32 5
  %97 = load i32, ptr %96, align 4
  %98 = icmp sgt i32 %97, 0
  br i1 %98, label %99, label %106

99:                                               ; preds = %86
  %100 = load ptr, ptr %7, align 8
  %101 = getelementptr inbounds i8, ptr %100, i64 5
  %102 = load ptr, ptr %5, align 8
  %103 = getelementptr inbounds nuw %struct.tm, ptr %102, i32 0, i32 5
  %104 = load i32, ptr %103, align 4
  %105 = call i32 (ptr, ptr, ...) @pg_sprintf(ptr noundef %101, ptr noundef @.str.44, i32 noundef %104)
  br label %115

106:                                              ; preds = %86
  %107 = load ptr, ptr %7, align 8
  %108 = getelementptr inbounds i8, ptr %107, i64 5
  %109 = load ptr, ptr %5, align 8
  %110 = getelementptr inbounds nuw %struct.tm, ptr %109, i32 0, i32 5
  %111 = load i32, ptr %110, align 4
  %112 = sub i32 %111, 1
  %113 = sub i32 0, %112
  %114 = call i32 (ptr, ptr, ...) @pg_sprintf(ptr noundef %108, ptr noundef @.str.45, i32 noundef %113, ptr noundef @.str.39)
  br label %115

115:                                              ; preds = %106, %99
  br label %160

116:                                              ; preds = %4
  br label %117

117:                                              ; preds = %4, %116
  %118 = load i8, ptr %8, align 1, !range !5, !noundef !6
  %119 = trunc i8 %118 to i1
  br i1 %119, label %120, label %129

120:                                              ; preds = %117
  %121 = load ptr, ptr %7, align 8
  %122 = load ptr, ptr %5, align 8
  %123 = getelementptr inbounds nuw %struct.tm, ptr %122, i32 0, i32 3
  %124 = load i32, ptr %123, align 4
  %125 = load ptr, ptr %5, align 8
  %126 = getelementptr inbounds nuw %struct.tm, ptr %125, i32 0, i32 4
  %127 = load i32, ptr %126, align 8
  %128 = call i32 (ptr, ptr, ...) @pg_sprintf(ptr noundef %121, ptr noundef @.str.46, i32 noundef %124, i32 noundef %127)
  br label %138

129:                                              ; preds = %117
  %130 = load ptr, ptr %7, align 8
  %131 = load ptr, ptr %5, align 8
  %132 = getelementptr inbounds nuw %struct.tm, ptr %131, i32 0, i32 4
  %133 = load i32, ptr %132, align 8
  %134 = load ptr, ptr %5, align 8
  %135 = getelementptr inbounds nuw %struct.tm, ptr %134, i32 0, i32 3
  %136 = load i32, ptr %135, align 4
  %137 = call i32 (ptr, ptr, ...) @pg_sprintf(ptr noundef %130, ptr noundef @.str.46, i32 noundef %133, i32 noundef %136)
  br label %138

138:                                              ; preds = %129, %120
  %139 = load ptr, ptr %5, align 8
  %140 = getelementptr inbounds nuw %struct.tm, ptr %139, i32 0, i32 5
  %141 = load i32, ptr %140, align 4
  %142 = icmp sgt i32 %141, 0
  br i1 %142, label %143, label %150

143:                                              ; preds = %138
  %144 = load ptr, ptr %7, align 8
  %145 = getelementptr inbounds i8, ptr %144, i64 5
  %146 = load ptr, ptr %5, align 8
  %147 = getelementptr inbounds nuw %struct.tm, ptr %146, i32 0, i32 5
  %148 = load i32, ptr %147, align 4
  %149 = call i32 (ptr, ptr, ...) @pg_sprintf(ptr noundef %145, ptr noundef @.str.47, i32 noundef %148)
  br label %159

150:                                              ; preds = %138
  %151 = load ptr, ptr %7, align 8
  %152 = getelementptr inbounds i8, ptr %151, i64 5
  %153 = load ptr, ptr %5, align 8
  %154 = getelementptr inbounds nuw %struct.tm, ptr %153, i32 0, i32 5
  %155 = load i32, ptr %154, align 4
  %156 = sub i32 %155, 1
  %157 = sub i32 0, %156
  %158 = call i32 (ptr, ptr, ...) @pg_sprintf(ptr noundef %152, ptr noundef @.str.48, i32 noundef %157, ptr noundef @.str.39)
  br label %159

159:                                              ; preds = %150, %143
  br label %160

160:                                              ; preds = %159, %115, %85, %42
  ret void
}