; Function Attrs: nounwind uwtable
define void @EncodeDateOnly(ptr noundef readonly captures(none) %0, i32 noundef %1, ptr noundef %2, i1 noundef zeroext %3) local_unnamed_addr #5 {
  switch i32 %1, label %60 [
    i32 1, label %5
    i32 2, label %22
    i32 3, label %45
  ]

5:                                                ; preds = %4
  %6 = getelementptr inbounds nuw i8, ptr %0, i64 20
  %7 = load i32, ptr %6, align 4
  %8 = icmp sgt i32 %7, 0
  br i1 %8, label %9, label %15

9:                                                ; preds = %5
  %10 = getelementptr inbounds nuw i8, ptr %0, i64 16
  %11 = load i32, ptr %10, align 8
  %12 = getelementptr inbounds nuw i8, ptr %0, i64 12
  %13 = load i32, ptr %12, align 4
  %14 = tail call i32 (ptr, ptr, ...) @pg_sprintf(ptr noundef %2, ptr noundef nonnull @.str.37, i32 noundef %7, i32 noundef %11, i32 noundef %13) #17
  br label %83

15:                                               ; preds = %5
  %16 = sub i32 1, %7
  %17 = getelementptr inbounds nuw i8, ptr %0, i64 16
  %18 = load i32, ptr %17, align 8
  %19 = getelementptr inbounds nuw i8, ptr %0, i64 12
  %20 = load i32, ptr %19, align 4
  %21 = tail call i32 (ptr, ptr, ...) @pg_sprintf(ptr noundef %2, ptr noundef nonnull @.str.38, i32 noundef %16, i32 noundef %18, i32 noundef %20, ptr noundef nonnull @.str.39) #17
  br label %83

22:                                               ; preds = %4
  br i1 %3, label %23, label %29

23:                                               ; preds = %22
  %24 = getelementptr inbounds nuw i8, ptr %0, i64 12
  %25 = load i32, ptr %24, align 4
  %26 = getelementptr inbounds nuw i8, ptr %0, i64 16
  %27 = load i32, ptr %26, align 8
  %28 = tail call i32 (ptr, ptr, ...) @pg_sprintf(ptr noundef %2, ptr noundef nonnull @.str.40, i32 noundef %25, i32 noundef %27) #17
  br label %35

29:                                               ; preds = %22
  %30 = getelementptr inbounds nuw i8, ptr %0, i64 16
  %31 = load i32, ptr %30, align 8
  %32 = getelementptr inbounds nuw i8, ptr %0, i64 12
  %33 = load i32, ptr %32, align 4
  %34 = tail call i32 (ptr, ptr, ...) @pg_sprintf(ptr noundef %2, ptr noundef nonnull @.str.40, i32 noundef %31, i32 noundef %33) #17
  br label %35

35:                                               ; preds = %29, %23
  %36 = getelementptr inbounds nuw i8, ptr %0, i64 20
  %37 = load i32, ptr %36, align 4
  %38 = icmp sgt i32 %37, 0
  %39 = getelementptr inbounds nuw i8, ptr %2, i64 5
  br i1 %38, label %40, label %42

40:                                               ; preds = %35
  %41 = tail call i32 (ptr, ptr, ...) @pg_sprintf(ptr noundef nonnull %39, ptr noundef nonnull @.str.41, i32 noundef %37) #17
  br label %83

42:                                               ; preds = %35
  %43 = sub i32 1, %37
  %44 = tail call i32 (ptr, ptr, ...) @pg_sprintf(ptr noundef nonnull %39, ptr noundef nonnull @.str.42, i32 noundef %43, ptr noundef nonnull @.str.39) #17
  br label %83

45:                                               ; preds = %4
  %46 = getelementptr inbounds nuw i8, ptr %0, i64 12
  %47 = load i32, ptr %46, align 4
  %48 = getelementptr inbounds nuw i8, ptr %0, i64 16
  %49 = load i32, ptr %48, align 8
  %50 = tail call i32 (ptr, ptr, ...) @pg_sprintf(ptr noundef %2, ptr noundef nonnull @.str.43, i32 noundef %47, i32 noundef %49) #17
  %51 = getelementptr inbounds nuw i8, ptr %0, i64 20
  %52 = load i32, ptr %51, align 4
  %53 = icmp sgt i32 %52, 0
  %54 = getelementptr inbounds nuw i8, ptr %2, i64 5
  br i1 %53, label %55, label %57

55:                                               ; preds = %45
  %56 = tail call i32 (ptr, ptr, ...) @pg_sprintf(ptr noundef nonnull %54, ptr noundef nonnull @.str.44, i32 noundef %52) #17
  br label %83

57:                                               ; preds = %45
  %58 = sub i32 1, %52
  %59 = tail call i32 (ptr, ptr, ...) @pg_sprintf(ptr noundef nonnull %54, ptr noundef nonnull @.str.45, i32 noundef %58, ptr noundef nonnull @.str.39) #17
  br label %83

60:                                               ; preds = %4
  br i1 %3, label %61, label %67

61:                                               ; preds = %60
  %62 = getelementptr inbounds nuw i8, ptr %0, i64 12
  %63 = load i32, ptr %62, align 4
  %64 = getelementptr inbounds nuw i8, ptr %0, i64 16
  %65 = load i32, ptr %64, align 8
  %66 = tail call i32 (ptr, ptr, ...) @pg_sprintf(ptr noundef %2, ptr noundef nonnull @.str.46, i32 noundef %63, i32 noundef %65) #17
  br label %73

67:                                               ; preds = %60
  %68 = getelementptr inbounds nuw i8, ptr %0, i64 16
  %69 = load i32, ptr %68, align 8
  %70 = getelementptr inbounds nuw i8, ptr %0, i64 12
  %71 = load i32, ptr %70, align 4
  %72 = tail call i32 (ptr, ptr, ...) @pg_sprintf(ptr noundef %2, ptr noundef nonnull @.str.46, i32 noundef %69, i32 noundef %71) #17
  br label %73

73:                                               ; preds = %67, %61
  %74 = getelementptr inbounds nuw i8, ptr %0, i64 20
  %75 = load i32, ptr %74, align 4
  %76 = icmp sgt i32 %75, 0
  %77 = getelementptr inbounds nuw i8, ptr %2, i64 5
  br i1 %76, label %78, label %80

78:                                               ; preds = %73
  %79 = tail call i32 (ptr, ptr, ...) @pg_sprintf(ptr noundef nonnull %77, ptr noundef nonnull @.str.47, i32 noundef %75) #17
  br label %83

80:                                               ; preds = %73
  %81 = sub i32 1, %75
  %82 = tail call i32 (ptr, ptr, ...) @pg_sprintf(ptr noundef nonnull %77, ptr noundef nonnull @.str.48, i32 noundef %81, ptr noundef nonnull @.str.39) #17
  br label %83

83:                                               ; preds = %78, %80, %55, %57, %40, %42, %9, %15
  ret void
}